target datalayout = "e-m:e-p270:32:32-p271:32:32-p272:64:64-i64:64-i128:128-f80:128-n8:16:32:64-S128"
target triple = "x86_64-pc-linux-gnu"

%class.IntegerTypeMultiplication = type { i32, i32, i32, i32, i16, i16 }
%class.TypeInt = type { %class.TypeInteger.base, i32, i32 }
%class.TypeInteger.base = type { %class.Type.base, i16 }
%class.Type.base = type <{ ptr, ptr, i32 }>
%class.TypeInteger = type { %class.Type.base, i16, [2 x i8] }

@_ZN7TypeInt3INTE = external global ptr, align 8

; Function Attrs: mustprogress nounwind uwtable
define linkonce_odr hidden noundef i32 @_ZN25IntegerTypeMultiplicationIiE24normalize_overflow_valueEiii(i32 noundef %0, i32 noundef %1, i32 noundef %2) #1 comdat align 2 {
  %4 = alloca i32, align 4
  %5 = alloca i32, align 4
  %6 = alloca i32, align 4
  store i32 %0, ptr %4, align 4
  store i32 %1, ptr %5, align 4
  store i32 %2, ptr %6, align 4
  %7 = load i32, ptr %4, align 4
  %8 = load i32, ptr %5, align 4
  %9 = call noundef i32 @_Z13java_multiplyii(i32 noundef %7, i32 noundef %8)
  %10 = icmp slt i32 %9, 0
  br i1 %10, label %11, label %14

11:                                               ; preds = %3
  %12 = load i32, ptr %6, align 4
  %13 = add nsw i32 %12, 1
  br label %16

14:                                               ; preds = %3
  %15 = load i32, ptr %6, align 4
  br label %16

16:                                               ; preds = %14, %11
  %17 = phi i32 [ %13, %11 ], [ %15, %14 ]
  ret i32 %17
}

; Function Attrs: mustprogress nounwind uwtable
define hidden noundef i32 @_ZN25IntegerTypeMultiplicationIiE13multiply_highEii(i32 noundef %0, i32 noundef %1) #1 align 2 {
  %3 = alloca i32, align 4
  %4 = alloca i32, align 4
  %5 = alloca i64, align 8
  %6 = alloca i64, align 8
  %7 = alloca i64, align 8
  store i32 %0, ptr %3, align 4
  store i32 %1, ptr %4, align 4
  %8 = load i32, ptr %3, align 4
  %9 = sext i32 %8 to i64
  store i64 %9, ptr %5, align 8
  %10 = load i32, ptr %4, align 4
  %11 = sext i32 %10 to i64
  store i64 %11, ptr %6, align 8
  %12 = load i64, ptr %5, align 8
  %13 = load i64, ptr %6, align 8
  %14 = mul nsw i64 %12, %13
  store i64 %14, ptr %7, align 8
  %15 = load i64, ptr %7, align 8
  %16 = lshr i64 %15, 32
  %17 = trunc i64 %16 to i32
  ret i32 %17
}

; Function Attrs: mustprogress nounwind uwtable
define linkonce_odr hidden noundef signext i16 @_Z4MAX2IsET_S0_S0_(i16 noundef signext %0, i16 noundef signext %1) #1 comdat {
  %3 = alloca i16, align 2
  %4 = alloca i16, align 2
  store i16 %0, ptr %3, align 2
  store i16 %1, ptr %4, align 2
  %5 = load i16, ptr %3, align 2
  %6 = sext i16 %5 to i32
  %7 = load i16, ptr %4, align 2
  %8 = sext i16 %7 to i32
  %9 = icmp sgt i32 %6, %8
  br i1 %9, label %10, label %12

10:                                               ; preds = %2
  %11 = load i16, ptr %3, align 2
  br label %14

12:                                               ; preds = %2
  %13 = load i16, ptr %4, align 2
  br label %14

14:                                               ; preds = %12, %10
  %15 = phi i16 [ %11, %10 ], [ %13, %12 ]
  ret i16 %15
}

; Function Attrs: mustprogress nounwind uwtable
define linkonce_odr hidden noundef i32 @_Z4MAX2IiET_S0_S0_(i32 noundef %0, i32 noundef %1) #1 comdat {
  %3 = alloca i32, align 4
  %4 = alloca i32, align 4
  store i32 %0, ptr %3, align 4
  store i32 %1, ptr %4, align 4
  %5 = load i32, ptr %3, align 4
  %6 = load i32, ptr %4, align 4
  %7 = icmp sgt i32 %5, %6
  br i1 %7, label %8, label %10

8:                                                ; preds = %2
  %9 = load i32, ptr %3, align 4
  br label %12

10:                                               ; preds = %2
  %11 = load i32, ptr %4, align 4
  br label %12

12:                                               ; preds = %10, %8
  %13 = phi i32 [ %9, %8 ], [ %11, %10 ]
  ret i32 %13
}

; Function Attrs: mustprogress nounwind uwtable
define linkonce_odr hidden noundef i32 @_Z4MAX3IiET_S0_S0_S0_(i32 noundef %0, i32 noundef %1, i32 noundef %2) #1 comdat {
  %4 = alloca i32, align 4
  %5 = alloca i32, align 4
  %6 = alloca i32, align 4
  store i32 %0, ptr %4, align 4
  store i32 %1, ptr %5, align 4
  store i32 %2, ptr %6, align 4
  %7 = load i32, ptr %4, align 4
  %8 = load i32, ptr %5, align 4
  %9 = call noundef i32 @_Z4MAX2IiET_S0_S0_(i32 noundef %7, i32 noundef %8)
  %10 = load i32, ptr %6, align 4
  %11 = call noundef i32 @_Z4MAX2IiET_S0_S0_(i32 noundef %9, i32 noundef %10)
  ret i32 %11
}

; Function Attrs: mustprogress nounwind uwtable
define linkonce_odr hidden noundef i32 @_Z4MIN2IiET_S0_S0_(i32 noundef %0, i32 noundef %1) #1 comdat {
  %3 = alloca i32, align 4
  %4 = alloca i32, align 4
  store i32 %0, ptr %3, align 4
  store i32 %1, ptr %4, align 4
  %5 = load i32, ptr %3, align 4
  %6 = load i32, ptr %4, align 4
  %7 = icmp slt i32 %5, %6
  br i1 %7, label %8, label %10

8:                                                ; preds = %2
  %9 = load i32, ptr %3, align 4
  br label %12

10:                                               ; preds = %2
  %11 = load i32, ptr %4, align 4
  br label %12

12:                                               ; preds = %10, %8
  %13 = phi i32 [ %9, %8 ], [ %11, %10 ]
  ret i32 %13
}

; Function Attrs: mustprogress nounwind uwtable
define linkonce_odr hidden noundef i32 @_Z4MIN3IiET_S0_S0_S0_(i32 noundef %0, i32 noundef %1, i32 noundef %2) #1 comdat {
  %4 = alloca i32, align 4
  %5 = alloca i32, align 4
  %6 = alloca i32, align 4
  store i32 %0, ptr %4, align 4
  store i32 %1, ptr %5, align 4
  store i32 %2, ptr %6, align 4
  %7 = load i32, ptr %4, align 4
  %8 = load i32, ptr %5, align 4
  %9 = call noundef i32 @_Z4MIN2IiET_S0_S0_(i32 noundef %7, i32 noundef %8)
  %10 = load i32, ptr %6, align 4
  %11 = call noundef i32 @_Z4MIN2IiET_S0_S0_(i32 noundef %9, i32 noundef %10)
  ret i32 %11
}

; Function Attrs: mustprogress nounwind uwtable
define linkonce_odr hidden noundef i32 @_ZN25IntegerTypeMultiplicationIiE35multiply_high_signed_overflow_valueEii(i32 noundef %0, i32 noundef %1) #1 comdat align 2 {
  %3 = alloca i32, align 4
  %4 = alloca i32, align 4
  store i32 %0, ptr %3, align 4
  store i32 %1, ptr %4, align 4
  %5 = load i32, ptr %3, align 4
  %6 = load i32, ptr %4, align 4
  %7 = load i32, ptr %3, align 4
  %8 = load i32, ptr %4, align 4
  %9 = call noundef i32 @_ZN25IntegerTypeMultiplicationIiE13multiply_highEii(i32 noundef %7, i32 noundef %8)
  %10 = call noundef i32 @_ZN25IntegerTypeMultiplicationIiE24normalize_overflow_valueEiii(i32 noundef %5, i32 noundef %6, i32 noundef %9)
  ret i32 %10
}

; Function Attrs: mustprogress nounwind uwtable
define hidden noundef ptr @_ZNK25IntegerTypeMultiplicationIiE11create_typeEii(ptr noundef nonnull align 4 dereferenceable(20) %0, i32 noundef %1, i32 noundef %2) #1 align 2 {
  %4 = alloca ptr, align 8
  %5 = alloca i32, align 4
  %6 = alloca i32, align 4
  store ptr %0, ptr %4, align 8
  store i32 %1, ptr %5, align 4
  store i32 %2, ptr %6, align 4
  %7 = load ptr, ptr %4, align 8
  %8 = load i32, ptr %5, align 4
  %9 = load i32, ptr %6, align 4
  %10 = getelementptr inbounds %class.IntegerTypeMultiplication, ptr %7, i32 0, i32 4
  %11 = load i16, ptr %10, align 4
  %12 = getelementptr inbounds %class.IntegerTypeMultiplication, ptr %7, i32 0, i32 5
  %13 = load i16, ptr %12, align 2
  %14 = call noundef signext i16 @_Z4MAX2IsET_S0_S0_(i16 noundef signext %11, i16 noundef signext %13)
  %15 = sext i16 %14 to i32
  %16 = call noundef ptr @_ZN7TypeInt4makeEiii(i32 noundef %8, i32 noundef %9, i32 noundef %15)
  ret ptr %16
}

; Function Attrs: mustprogress nounwind uwtable
define linkonce_odr hidden noundef i32 @_Z4MAX4IiET_S0_S0_S0_S0_(i32 noundef %0, i32 noundef %1, i32 noundef %2, i32 noundef %3) #1 comdat {
  %5 = alloca i32, align 4
  %6 = alloca i32, align 4
  %7 = alloca i32, align 4
  %8 = alloca i32, align 4
  store i32 %0, ptr %5, align 4
  store i32 %1, ptr %6, align 4
  store i32 %2, ptr %7, align 4
  store i32 %3, ptr %8, align 4
  %9 = load i32, ptr %5, align 4
  %10 = load i32, ptr %6, align 4
  %11 = load i32, ptr %7, align 4
  %12 = call noundef i32 @_Z4MAX3IiET_S0_S0_S0_(i32 noundef %9, i32 noundef %10, i32 noundef %11)
  %13 = load i32, ptr %8, align 4
  %14 = call noundef i32 @_Z4MAX2IiET_S0_S0_(i32 noundef %12, i32 noundef %13)
  ret i32 %14
}

; Function Attrs: mustprogress nounwind uwtable
define linkonce_odr hidden noundef i32 @_Z4MIN4IiET_S0_S0_S0_S0_(i32 noundef %0, i32 noundef %1, i32 noundef %2, i32 noundef %3) #1 comdat {
  %5 = alloca i32, align 4
  %6 = alloca i32, align 4
  %7 = alloca i32, align 4
  %8 = alloca i32, align 4
  store i32 %0, ptr %5, align 4
  store i32 %1, ptr %6, align 4
  store i32 %2, ptr %7, align 4
  store i32 %3, ptr %8, align 4
  %9 = load i32, ptr %5, align 4
  %10 = load i32, ptr %6, align 4
  %11 = load i32, ptr %7, align 4
  %12 = call noundef i32 @_Z4MIN3IiET_S0_S0_S0_(i32 noundef %9, i32 noundef %10, i32 noundef %11)
  %13 = load i32, ptr %8, align 4
  %14 = call noundef i32 @_Z4MIN2IiET_S0_S0_(i32 noundef %12, i32 noundef %13)
  ret i32 %14
}

; Function Attrs: mustprogress nounwind uwtable
define linkonce_odr hidden noundef i32 @_Z13java_multiplyii(i32 noundef %0, i32 noundef %1) #1 comdat {
  %3 = alloca i32, align 4
  %4 = alloca i32, align 4
  %5 = alloca i32, align 4
  store i32 %0, ptr %3, align 4
  store i32 %1, ptr %4, align 4
  %6 = load i32, ptr %3, align 4
  store i32 %6, ptr %5, align 4
  %7 = load i32, ptr %4, align 4
  %8 = load i32, ptr %5, align 4
  %9 = mul i32 %8, %7
  store i32 %9, ptr %5, align 4
  %10 = load i32, ptr %5, align 4
  ret i32 %10
}

; Function Attrs: mustprogress nounwind uwtable
define hidden noundef ptr @_ZN25IntegerTypeMultiplicationIiE13overflow_typeEv() #1 align 2 {
  %1 = load ptr, ptr @_ZN7TypeInt3INTE, align 8
  ret ptr %1
}

; Function Attrs: mustprogress nounwind uwtable
define linkonce_odr hidden noundef zeroext i1 @_ZNK25IntegerTypeMultiplicationIiE37cross_product_not_same_overflow_valueEv(ptr noundef nonnull align 4 dereferenceable(20) %0) #1 comdat align 2 {
  %2 = alloca ptr, align 8
  %3 = alloca i32, align 4
  %4 = alloca i32, align 4
  %5 = alloca i32, align 4
  %6 = alloca i32, align 4
  store ptr %0, ptr %2, align 8
  %7 = load ptr, ptr %2, align 8
  %8 = getelementptr inbounds %class.IntegerTypeMultiplication, ptr %7, i32 0, i32 0
  %9 = load i32, ptr %8, align 4
  %10 = getelementptr inbounds %class.IntegerTypeMultiplication, ptr %7, i32 0, i32 1
  %11 = load i32, ptr %10, align 4
  %12 = call noundef i32 @_ZN25IntegerTypeMultiplicationIiE35multiply_high_signed_overflow_valueEii(i32 noundef %9, i32 noundef %11)
  store i32 %12, ptr %3, align 4
  %13 = getelementptr inbounds %class.IntegerTypeMultiplication, ptr %7, i32 0, i32 0
  %14 = load i32, ptr %13, align 4
  %15 = getelementptr inbounds %class.IntegerTypeMultiplication, ptr %7, i32 0, i32 3
  %16 = load i32, ptr %15, align 4
  %17 = call noundef i32 @_ZN25IntegerTypeMultiplicationIiE35multiply_high_signed_overflow_valueEii(i32 noundef %14, i32 noundef %16)
  store i32 %17, ptr %4, align 4
  %18 = getelementptr inbounds %class.IntegerTypeMultiplication, ptr %7, i32 0, i32 2
  %19 = load i32, ptr %18, align 4
  %20 = getelementptr inbounds %class.IntegerTypeMultiplication, ptr %7, i32 0, i32 1
  %21 = load i32, ptr %20, align 4
  %22 = call noundef i32 @_ZN25IntegerTypeMultiplicationIiE35multiply_high_signed_overflow_valueEii(i32 noundef %19, i32 noundef %21)
  store i32 %22, ptr %5, align 4
  %23 = getelementptr inbounds %class.IntegerTypeMultiplication, ptr %7, i32 0, i32 2
  %24 = load i32, ptr %23, align 4
  %25 = getelementptr inbounds %class.IntegerTypeMultiplication, ptr %7, i32 0, i32 3
  %26 = load i32, ptr %25, align 4
  %27 = call noundef i32 @_ZN25IntegerTypeMultiplicationIiE35multiply_high_signed_overflow_valueEii(i32 noundef %24, i32 noundef %26)
  store i32 %27, ptr %6, align 4
  %28 = load i32, ptr %3, align 4
  %29 = load i32, ptr %4, align 4
  %30 = icmp ne i32 %28, %29
  br i1 %30, label %39, label %31

31:                                               ; preds = %1
  %32 = load i32, ptr %4, align 4
  %33 = load i32, ptr %5, align 4
  %34 = icmp ne i32 %32, %33
  br i1 %34, label %39, label %35

35:                                               ; preds = %31
  %36 = load i32, ptr %5, align 4
  %37 = load i32, ptr %6, align 4
  %38 = icmp ne i32 %36, %37
  br label %39

39:                                               ; preds = %35, %31, %1
  %40 = phi i1 [ true, %31 ], [ true, %1 ], [ %38, %35 ]
  ret i1 %40
}

; Function Attrs: mustprogress nounwind uwtable
define linkonce_odr hidden noundef ptr @_ZNK25IntegerTypeMultiplicationIiE7computeEv(ptr noundef nonnull align 4 dereferenceable(20) %0) #1 comdat align 2 {
  %2 = alloca ptr, align 8
  %3 = alloca ptr, align 8
  %4 = alloca i32, align 4
  %5 = alloca i32, align 4
  %6 = alloca i32, align 4
  %7 = alloca i32, align 4
  %8 = alloca i32, align 4
  %9 = alloca i32, align 4
  store ptr %0, ptr %3, align 8
  %10 = load ptr, ptr %3, align 8
  %11 = call noundef zeroext i1 @_ZNK25IntegerTypeMultiplicationIiE37cross_product_not_same_overflow_valueEv(ptr noundef nonnull align 4 dereferenceable(20) %10)
  br i1 %11, label %12, label %14

12:                                               ; preds = %1
  %13 = call noundef ptr @_ZN25IntegerTypeMultiplicationIiE13overflow_typeEv()
  store ptr %13, ptr %2, align 8
  br label %48

14:                                               ; preds = %1
  %15 = getelementptr inbounds %class.IntegerTypeMultiplication, ptr %10, i32 0, i32 0
  %16 = load i32, ptr %15, align 4
  %17 = getelementptr inbounds %class.IntegerTypeMultiplication, ptr %10, i32 0, i32 1
  %18 = load i32, ptr %17, align 4
  %19 = call noundef i32 @_Z13java_multiplyii(i32 noundef %16, i32 noundef %18)
  store i32 %19, ptr %4, align 4
  %20 = getelementptr inbounds %class.IntegerTypeMultiplication, ptr %10, i32 0, i32 0
  %21 = load i32, ptr %20, align 4
  %22 = getelementptr inbounds %class.IntegerTypeMultiplication, ptr %10, i32 0, i32 3
  %23 = load i32, ptr %22, align 4
  %24 = call noundef i32 @_Z13java_multiplyii(i32 noundef %21, i32 noundef %23)
  store i32 %24, ptr %5, align 4
  %25 = getelementptr inbounds %class.IntegerTypeMultiplication, ptr %10, i32 0, i32 2
  %26 = load i32, ptr %25, align 4
  %27 = getelementptr inbounds %class.IntegerTypeMultiplication, ptr %10, i32 0, i32 1
  %28 = load i32, ptr %27, align 4
  %29 = call noundef i32 @_Z13java_multiplyii(i32 noundef %26, i32 noundef %28)
  store i32 %29, ptr %6, align 4
  %30 = getelementptr inbounds %class.IntegerTypeMultiplication, ptr %10, i32 0, i32 2
  %31 = load i32, ptr %30, align 4
  %32 = getelementptr inbounds %class.IntegerTypeMultiplication, ptr %10, i32 0, i32 3
  %33 = load i32, ptr %32, align 4
  %34 = call noundef i32 @_Z13java_multiplyii(i32 noundef %31, i32 noundef %33)
  store i32 %34, ptr %7, align 4
  %35 = load i32, ptr %4, align 4
  %36 = load i32, ptr %5, align 4
  %37 = load i32, ptr %6, align 4
  %38 = load i32, ptr %7, align 4
  %39 = call noundef i32 @_Z4MIN4IiET_S0_S0_S0_S0_(i32 noundef %35, i32 noundef %36, i32 noundef %37, i32 noundef %38)
  store i32 %39, ptr %8, align 4
  %40 = load i32, ptr %4, align 4
  %41 = load i32, ptr %5, align 4
  %42 = load i32, ptr %6, align 4
  %43 = load i32, ptr %7, align 4
  %44 = call noundef i32 @_Z4MAX4IiET_S0_S0_S0_S0_(i32 noundef %40, i32 noundef %41, i32 noundef %42, i32 noundef %43)
  store i32 %44, ptr %9, align 4
  %45 = load i32, ptr %8, align 4
  %46 = load i32, ptr %9, align 4
  %47 = call noundef ptr @_ZNK25IntegerTypeMultiplicationIiE11create_typeEii(ptr noundef nonnull align 4 dereferenceable(20) %10, i32 noundef %45, i32 noundef %46)
  store ptr %47, ptr %2, align 8
  br label %48

48:                                               ; preds = %14, %12
  %49 = load ptr, ptr %2, align 8
  ret ptr %49
}

; Function Attrs: mustprogress nounwind uwtable
define linkonce_odr hidden void @_ZN25IntegerTypeMultiplicationIiEC2I7TypeIntEEPKT_S5_(ptr noundef nonnull align 4 dereferenceable(20) %0, ptr noundef %1, ptr noundef %2) unnamed_addr #1 comdat align 2 {
  %4 = alloca ptr, align 8
  %5 = alloca ptr, align 8
  %6 = alloca ptr, align 8
  store ptr %0, ptr %4, align 8
  store ptr %1, ptr %5, align 8
  store ptr %2, ptr %6, align 8
  %7 = load ptr, ptr %4, align 8
  %8 = getelementptr inbounds %class.IntegerTypeMultiplication, ptr %7, i32 0, i32 0
  %9 = load ptr, ptr %5, align 8
  %10 = getelementptr inbounds %class.TypeInt, ptr %9, i32 0, i32 1
  %11 = load i32, ptr %10, align 8
  store i32 %11, ptr %8, align 4
  %12 = getelementptr inbounds %class.IntegerTypeMultiplication, ptr %7, i32 0, i32 1
  %13 = load ptr, ptr %6, align 8
  %14 = getelementptr inbounds %class.TypeInt, ptr %13, i32 0, i32 1
  %15 = load i32, ptr %14, align 8
  store i32 %15, ptr %12, align 4
  %16 = getelementptr inbounds %class.IntegerTypeMultiplication, ptr %7, i32 0, i32 2
  %17 = load ptr, ptr %5, align 8
  %18 = getelementptr inbounds %class.TypeInt, ptr %17, i32 0, i32 2
  %19 = load i32, ptr %18, align 4
  store i32 %19, ptr %16, align 4
  %20 = getelementptr inbounds %class.IntegerTypeMultiplication, ptr %7, i32 0, i32 3
  %21 = load ptr, ptr %6, align 8
  %22 = getelementptr inbounds %class.TypeInt, ptr %21, i32 0, i32 2
  %23 = load i32, ptr %22, align 4
  store i32 %23, ptr %20, align 4
  %24 = getelementptr inbounds %class.IntegerTypeMultiplication, ptr %7, i32 0, i32 4
  %25 = load ptr, ptr %5, align 8
  %26 = getelementptr inbounds %class.TypeInteger, ptr %25, i32 0, i32 1
  %27 = load i16, ptr %26, align 4
  store i16 %27, ptr %24, align 4
  %28 = getelementptr inbounds %class.IntegerTypeMultiplication, ptr %7, i32 0, i32 5
  %29 = load ptr, ptr %6, align 8
  %30 = getelementptr inbounds %class.TypeInteger, ptr %29, i32 0, i32 1
  %31 = load i16, ptr %30, align 4
  store i16 %31, ptr %28, align 2
  ret void
}

; Function Attrs: mustprogress nounwind uwtable
define linkonce_odr hidden noundef ptr @_ZNK4Type6is_intEv(ptr noundef nonnull align 8 dereferenceable(20) %0) #1 comdat align 2 {
  %2 = alloca ptr, align 8
  store ptr %0, ptr %2, align 8
  %3 = load ptr, ptr %2, align 8
  ret ptr %3
}

; Function Attrs: mustprogress nounwind uwtable
define hidden noundef ptr @_ZNK8MulINode8mul_ringEPK4TypeS2_(ptr noundef nonnull align 8 dereferenceable(52) %0, ptr noundef %1, ptr noundef %2) unnamed_addr #1 align 2 {
  %4 = alloca ptr, align 8
  %5 = alloca ptr, align 8
  %6 = alloca ptr, align 8
  %7 = alloca %class.IntegerTypeMultiplication, align 4
  store ptr %0, ptr %4, align 8
  store ptr %1, ptr %5, align 8
  store ptr %2, ptr %6, align 8
  %8 = load ptr, ptr %5, align 8
  %9 = call noundef ptr @_ZNK4Type6is_intEv(ptr noundef nonnull align 8 dereferenceable(20) %8)
  %10 = load ptr, ptr %6, align 8
  %11 = call noundef ptr @_ZNK4Type6is_intEv(ptr noundef nonnull align 8 dereferenceable(20) %10)
  call void @_ZN25IntegerTypeMultiplicationIiEC2I7TypeIntEEPKT_S5_(ptr noundef nonnull align 4 dereferenceable(20) %7, ptr noundef %9, ptr noundef %11)
  %12 = call noundef ptr @_ZNK25IntegerTypeMultiplicationIiE7computeEv(ptr noundef nonnull align 4 dereferenceable(20) %7)
  ret ptr %12
}