; Function Attrs: mustprogress nounwind uwtable
define hidden noundef ptr @_ZNK8MulINode8mul_ringEPK4TypeS2_(ptr nocapture noundef nonnull readnone align 8 dereferenceable(52) %0, ptr nocapture noundef readonly %1, ptr nocapture noundef readonly %2) unnamed_addr #0 align 2 {
  %4 = getelementptr inbounds i8, ptr %1, i64 24
  %5 = load i32, ptr %4, align 8
  %6 = getelementptr inbounds i8, ptr %2, i64 24
  %7 = load i32, ptr %6, align 8
  %8 = getelementptr inbounds i8, ptr %1, i64 28
  %9 = load i32, ptr %8, align 4
  %10 = getelementptr inbounds i8, ptr %2, i64 28
  %11 = load i32, ptr %10, align 4
  %12 = sext i32 %5 to i64
  %13 = sext i32 %7 to i64
  %14 = mul nsw i64 %13, %12
  %15 = lshr i64 %14, 32
  %16 = trunc nuw i64 %15 to i32
  %17 = mul i32 %7, %5
  %18 = lshr i32 %17, 31
  %19 = add i32 %18, %16
  %20 = sext i32 %11 to i64
  %21 = mul nsw i64 %20, %12
  %22 = lshr i64 %21, 32
  %23 = trunc nuw i64 %22 to i32
  %24 = mul i32 %11, %5
  %25 = lshr i32 %24, 31
  %26 = add i32 %25, %23
  %27 = sext i32 %9 to i64
  %28 = mul nsw i64 %27, %13
  %29 = lshr i64 %28, 32
  %30 = trunc nuw i64 %29 to i32
  %31 = mul i32 %9, %7
  %32 = lshr i32 %31, 31
  %33 = add i32 %32, %30
  %34 = mul nsw i64 %20, %27
  %35 = lshr i64 %34, 32
  %36 = trunc nuw i64 %35 to i32
  %37 = mul i32 %11, %9
  %38 = lshr i32 %37, 31
  %39 = add i32 %38, %36
  %.not.i.i = icmp ne i32 %19, %26
  %.not7.i.i = icmp ne i32 %26, %33
  %or.cond.not.i.i = or i1 %.not.i.i, %.not7.i.i
  %40 = icmp ne i32 %33, %39
  %spec.select.i.i = select i1 %or.cond.not.i.i, i1 true, i1 %40
  br i1 %spec.select.i.i, label %41, label %43

41:                                               ; preds = %3
  %42 = load ptr, ptr @_ZN7TypeInt3INTE, align 8
  br label %_ZNK25IntegerTypeMultiplicationIiE7computeEv.exit

43:                                               ; preds = %3
  %44 = getelementptr inbounds i8, ptr %2, i64 20
  %45 = load i16, ptr %44, align 4
  %46 = getelementptr inbounds i8, ptr %1, i64 20
  %47 = load i16, ptr %46, align 4
  %48 = tail call noundef i32 @llvm.smin.i32(i32 %17, i32 %24)
  %49 = tail call noundef i32 @llvm.smin.i32(i32 %48, i32 %31)
  %50 = tail call noundef i32 @llvm.smin.i32(i32 %49, i32 %37)
  %51 = tail call noundef i32 @llvm.smax.i32(i32 %17, i32 %24)
  %52 = tail call noundef i32 @llvm.smax.i32(i32 %51, i32 %31)
  %53 = tail call noundef i32 @llvm.smax.i32(i32 %52, i32 %37)
  %54 = tail call noundef i16 @llvm.smax.i16(i16 %47, i16 %45)
  %55 = sext i16 %54 to i32
  %56 = tail call noundef ptr @_ZN7TypeInt4makeEiii(i32 noundef %50, i32 noundef %53, i32 noundef %55) #10
  br label %_ZNK25IntegerTypeMultiplicationIiE7computeEv.exit

_ZNK25IntegerTypeMultiplicationIiE7computeEv.exit: ; preds = %41, %43
  %.0.i = phi ptr [ %42, %41 ], [ %56, %43 ]
  ret ptr %.0.i
}